; Function Attrs: mustprogress nounwind uwtable
define hidden void @_ZNK4llvh22PrettyStackTraceFormat5printERNS_11raw_ostreamE(ptr nocapture noundef nonnull readonly align 8 dereferenceable(64) %this, ptr noundef nonnull align 8 dereferenceable(36) %OS) unnamed_addr #4 align 2 {
entry:
  %Str = getelementptr inbounds i8, ptr %this, i64 16
  %0 = load ptr, ptr %Str, align 8
  %Size.i.i = getelementptr inbounds i8, ptr %this, i64 24
  %1 = load i32, ptr %Size.i.i, align 8
  %conv.i.i = zext i32 %1 to i64
  %call3.i = tail call noundef nonnull align 8 dereferenceable(36) ptr @_ZN4llvh11raw_ostream5writeEPKcm(ptr noundef nonnull align 8 dereferenceable(36) %OS, ptr noundef %0, i64 noundef %conv.i.i) #15
  %OutBufEnd.i5.i = getelementptr inbounds i8, ptr %call3.i, i64 16
  %2 = load ptr, ptr %OutBufEnd.i5.i, align 8
  %OutBufCur.i6.i = getelementptr inbounds i8, ptr %call3.i, i64 24
  %3 = load ptr, ptr %OutBufCur.i6.i, align 8
  %cmp.i.i = icmp eq ptr %2, %3
  br i1 %cmp.i.i, label %if.then.i.i, label %if.then4.i.i

if.then.i.i:                                      ; preds = %entry
  %call3.i.i = tail call noundef nonnull align 8 dereferenceable(36) ptr @_ZN4llvh11raw_ostream5writeEPKcm(ptr noundef nonnull align 8 dereferenceable(36) %call3.i, ptr noundef nonnull @.str, i64 noundef 1) #15
  br label %_ZN4llvh11raw_ostreamlsEPKc.exit

if.then4.i.i:                                     ; preds = %entry
  store i8 10, ptr %3, align 1
  %4 = load ptr, ptr %OutBufCur.i6.i, align 8
  %add.ptr.i.i = getelementptr inbounds i8, ptr %4, i64 1
  store ptr %add.ptr.i.i, ptr %OutBufCur.i6.i, align 8
  br label %_ZN4llvh11raw_ostreamlsEPKc.exit

_ZN4llvh11raw_ostreamlsEPKc.exit:                 ; preds = %if.then.i.i, %if.then4.i.i
  ret void
}